Certificate:
    Data:
        Version: 1 (0x0)
        Serial Number: 2 (0x2)
    Signature Algorithm: sha512WithRSAEncryption
        Issuer: C=US, ST=CA, O=Open vSwitch, OU=controllerca, CN=OVS controllerca CA Certificate (2017 Jun 26 19:37:50)
        Validity
            Not Before: Jun 27 02:40:24 2017 GMT
            Not After : Jun 25 02:40:24 2027 GMT
        Subject: C=US, ST=CA, O=Open vSwitch, OU=Open vSwitch certifier, CN=ctl id:0ceaa97e-ea49-4793-92d2-232965c743b3
        Subject Public Key Info:
            Public Key Algorithm: rsaEncryption
                Public-Key: (2048 bit)
                Modulus:
                    00:e2:3d:d7:c3:55:fb:ae:01:d5:35:89:64:3a:e2:
                    26:71:ff:a8:94:5b:24:f9:5d:72:09:8d:31:eb:44:
                    80:56:60:a1:a0:95:c5:d8:e4:f3:2b:27:a1:6a:d6:
                    8e:03:c8:0e:3c:b9:1c:7d:9f:ba:c7:89:2d:38:5c:
                    94:69:1f:c5:3c:b7:3e:c8:26:46:de:01:ff:bd:9f:
                    17:3a:60:f5:92:38:24:db:bb:c6:75:82:fa:e6:7b:
                    5e:7f:80:9d:92:90:43:96:3f:d5:e8:e7:da:2b:d2:
                    85:8d:d8:ef:0f:e5:2a:d4:df:e3:d3:24:4f:f7:e4:
                    b4:7d:2f:c9:25:76:a2:de:97:4d:55:e7:df:e1:b7:
                    1a:84:6e:df:3d:b5:f9:43:1d:b6:1a:7e:1e:36:88:
                    8a:ce:2d:b7:9f:ca:74:b1:6c:d6:98:da:48:11:13:
                    52:c5:8b:39:7f:7e:b4:ff:b5:03:6d:14:9a:a2:01:
                    d6:58:72:cd:f3:a8:39:43:6c:7d:63:78:86:7a:a2:
                    36:08:34:b8:46:f9:7f:99:4a:1f:ea:35:25:63:ec:
                    67:bb:5b:06:e0:88:a3:7e:2a:72:66:4d:32:19:61:
                    75:3f:e5:19:39:42:e9:b1:f0:11:59:89:5c:f7:a7:
                    56:b8:5d:aa:53:2b:04:ed:50:ec:de:dd:fc:49:7a:
                    ac:9f
                Exponent: 65537 (0x10001)
    Signature Algorithm: sha512WithRSAEncryption
         da:ed:6c:df:cf:c4:14:70:c9:0d:0b:ca:54:37:7f:d6:3b:93:
         2d:14:bb:96:bb:71:4c:da:d0:0e:45:bb:0b:d0:3b:7f:eb:55:
         4e:c4:5d:8d:2c:2d:d7:d2:6e:e2:9b:4c:48:19:e3:88:af:b6:
         5c:16:6d:eb:d2:ad:ed:d7:be:5c:31:b0:88:4b:fc:36:3e:d6:
         ee:c9:8b:cc:c2:54:80:70:c6:79:1d:15:26:c4:d4:ee:e2:d1:
         59:ae:21:72:13:81:90:3d:a2:c1:2a:5c:17:0a:32:55:b3:35:
         5c:db:c9:81:7d:12:aa:be:83:e0:d9:5e:f2:18:61:1f:60:64:
         15:84:d4:66:55:70:e7:af:c9:32:1a:39:63:5f:29:6b:80:c3:
         78:48:69:4c:ed:a9:2c:ff:d1:08:6d:22:dc:3d:6b:85:98:e6:
         d7:e7:a2:d8:f0:e6:58:04:67:0a:65:28:83:16:0e:29:98:64:
         e5:59:02:d0:5f:4b:6a:de:34:78:73:a8:75:1c:2f:6d:77:00:
         f8:69:19:30:7e:cf:83:5e:e4:ae:78:5b:5a:ee:5e:d0:8c:e4:
         4a:bf:81:d8:f0:30:12:6a:83:28:04:c4:56:08:16:12:4a:10:
         92:4c:61:d2:be:dd:59:bb:34:18:33:d7:9d:b6:25:6d:87:85:
         4c:9b:18:0b
-----BEGIN CERTIFICATE-----
MIIDhzCCAm8CAQIwDQYJKoZIhvcNAQENBQAwgYkxCzAJBgNVBAYTAlVTMQswCQYD
VQQIEwJDQTEVMBMGA1UEChMMT3BlbiB2U3dpdGNoMRUwEwYDVQQLEwxjb250cm9s
bGVyY2ExPzA9BgNVBAMTNk9WUyBjb250cm9sbGVyY2EgQ0EgQ2VydGlmaWNhdGUg
KDIwMTcgSnVuIDI2IDE5OjM3OjUwKTAeFw0xNzA2MjcwMjQwMjRaFw0yNzA2MjUw
MjQwMjRaMIGIMQswCQYDVQQGEwJVUzELMAkGA1UECBMCQ0ExFTATBgNVBAoTDE9w
ZW4gdlN3aXRjaDEfMB0GA1UECxMWT3BlbiB2U3dpdGNoIGNlcnRpZmllcjE0MDIG
A1UEAxMrY3RsIGlkOjBjZWFhOTdlLWVhNDktNDc5My05MmQyLTIzMjk2NWM3NDNi
MzCCASIwDQYJKoZIhvcNAQEBBQADggEPADCCAQoCggEBAOI918NV+64B1TWJZDri
JnH/qJRbJPldcgmNMetEgFZgoaCVxdjk8ysnoWrWjgPIDjy5HH2fuseJLThclGkf
xTy3PsgmRt4B/72fFzpg9ZI4JNu7xnWC+uZ7Xn+AnZKQQ5Y/1ejn2ivShY3Y7w/l
KtTf49MkT/fktH0vySV2ot6XTVXn3+G3GoRu3z21+UMdthp+HjaIis4tt5/KdLFs
1pjaSBETUsWLOX9+tP+1A20UmqIB1lhyzfOoOUNsfWN4hnqiNgg0uEb5f5lKH+o1
JWPsZ7tbBuCIo34qcmZNMhlhdT/lGTlC6bHwEVmJXPenVrhdqlMrBO1Q7N7d/El6
rJ8CAwEAATANBgkqhkiG9w0BAQ0FAAOCAQEA2u1s38/EFHDJDQvKVDd/1juTLRS7
lrtxTNrQDkW7C9A7f+tVTsRdjSwt19Ju4ptMSBnjiK+2XBZt69Kt7de+XDGwiEv8
Nj7W7smLzMJUgHDGeR0VJsTU7uLRWa4hchOBkD2iwSpcFwoyVbM1XNvJgX0Sqr6D
4Nle8hhhH2BkFYTUZlVw56/JMho5Y18pa4DDeEhpTO2pLP/RCG0i3D1rhZjm1+ei
2PDmWARnCmUogxYOKZhk5VkC0F9Lat40eHOodRwvbXcA+GkZMH7Pg17krnhbWu5e
0IzkSr+B2PAwEmqDKATEVggWEkoQkkxh0r7dWbs0GDPXnbYlbYeFTJsYCw==
-----END CERTIFICATE-----
