Certificate:
    Data:
        Version: 1 (0x0)
        Serial Number: 1 (0x1)
    Signature Algorithm: sha512WithRSAEncryption
        Issuer: C=US, ST=CA, O=Open vSwitch, OU=controllerca, CN=OVS controllerca CA Certificate (2017 Jun 26 19:37:50)
        Validity
            Not Before: Jun 27 02:37:50 2017 GMT
            Not After : Jun 25 02:37:50 2027 GMT
        Subject: C=US, ST=CA, O=Open vSwitch, OU=controllerca, CN=OVS controllerca CA Certificate (2017 Jun 26 19:37:50)
        Subject Public Key Info:
            Public Key Algorithm: rsaEncryption
                Public-Key: (2048 bit)
                Modulus:
                    00:df:c6:5e:58:e1:ce:84:c8:60:e9:e6:fe:ba:e9:
                    81:f7:16:6e:18:14:b4:3a:6d:a3:7d:7a:da:43:86:
                    01:71:3b:5c:19:8a:f5:41:bc:1a:bf:be:76:62:1a:
                    5c:e5:b8:5f:89:e8:8d:b8:e3:6c:3c:c2:a3:58:35:
                    79:1a:5e:04:01:80:37:7b:9d:d0:26:04:29:9d:c8:
                    f3:c4:18:df:ed:a4:cb:cf:bf:75:7f:d3:b2:34:06:
                    2f:89:be:65:78:8a:c7:85:d7:ff:a5:75:a5:4f:e5:
                    fe:20:28:d2:4f:75:ad:0b:2a:dc:55:ca:ef:71:1c:
                    87:a6:2d:bb:81:ee:8a:34:c0:0c:27:e0:db:47:6f:
                    ed:e3:aa:fd:8b:d5:1a:29:50:61:36:eb:f9:60:9e:
                    06:58:96:e5:2e:e6:82:60:c6:9e:f3:57:59:d6:13:
                    f8:fb:9c:61:df:13:5f:ba:ba:0f:53:35:b5:3d:d0:
                    5b:36:94:1f:bd:e9:93:09:77:f0:0b:d8:59:c2:55:
                    99:9e:93:d0:99:c7:77:5a:77:6b:2c:81:49:78:dd:
                    51:37:a0:07:0e:57:0c:60:f1:15:a2:67:7b:74:af:
                    d4:95:61:1f:e9:e3:c5:97:3d:8d:03:3c:0c:af:1c:
                    6a:ea:4f:ee:45:7a:84:28:15:b9:3d:82:09:38:3d:
                    a8:41
                Exponent: 65537 (0x10001)
    Signature Algorithm: sha512WithRSAEncryption
         0f:64:3b:2f:7f:9c:ad:c4:12:23:58:bc:22:21:73:37:b7:8e:
         26:96:1f:b2:b6:72:85:8f:a8:4e:ca:e4:20:77:9f:f1:30:46:
         b6:28:6d:9b:4e:93:d8:c0:c2:b3:d8:ed:4a:5b:b0:e3:6a:c2:
         db:f8:94:10:8f:7d:09:3f:ca:1a:8a:da:20:bc:50:2f:d0:cd:
         c8:c9:d3:71:1f:e3:6b:e7:fa:e8:51:fe:46:07:37:58:11:0c:
         5a:36:ef:69:33:d0:94:3c:b4:37:bb:8a:0e:ef:fb:15:80:55:
         4f:58:20:c0:8d:6f:cc:c0:93:f5:8a:f4:f5:88:f8:e5:72:1c:
         95:d6:ab:78:92:c5:20:98:20:78:04:76:2d:83:f8:39:41:d7:
         e5:4e:5b:db:60:72:d0:b6:dd:86:7e:4d:d8:db:cd:89:20:4c:
         95:1a:a9:41:60:79:02:bf:83:23:8e:89:e9:5b:08:0e:11:24:
         64:0c:cf:1d:31:50:1b:d9:fc:88:77:4a:8d:f1:59:ff:1e:f2:
         81:67:51:36:ec:2e:1f:f6:b7:63:0e:dc:f3:0c:36:83:82:1f:
         72:86:02:51:35:0b:21:b0:51:e2:ce:8d:f0:ea:8a:b0:77:94:
         3c:77:bf:4a:c9:c4:42:5f:02:b0:ad:d5:14:68:f0:47:d2:18:
         9f:83:1b:1a
-----BEGIN CERTIFICATE-----
MIIDiDCCAnACAQEwDQYJKoZIhvcNAQENBQAwgYkxCzAJBgNVBAYTAlVTMQswCQYD
VQQIEwJDQTEVMBMGA1UEChMMT3BlbiB2U3dpdGNoMRUwEwYDVQQLEwxjb250cm9s
bGVyY2ExPzA9BgNVBAMTNk9WUyBjb250cm9sbGVyY2EgQ0EgQ2VydGlmaWNhdGUg
KDIwMTcgSnVuIDI2IDE5OjM3OjUwKTAeFw0xNzA2MjcwMjM3NTBaFw0yNzA2MjUw
MjM3NTBaMIGJMQswCQYDVQQGEwJVUzELMAkGA1UECBMCQ0ExFTATBgNVBAoTDE9w
ZW4gdlN3aXRjaDEVMBMGA1UECxMMY29udHJvbGxlcmNhMT8wPQYDVQQDEzZPVlMg
Y29udHJvbGxlcmNhIENBIENlcnRpZmljYXRlICgyMDE3IEp1biAyNiAxOTozNzo1
MCkwggEiMA0GCSqGSIb3DQEBAQUAA4IBDwAwggEKAoIBAQDfxl5Y4c6EyGDp5v66
6YH3Fm4YFLQ6baN9etpDhgFxO1wZivVBvBq/vnZiGlzluF+J6I2442w8wqNYNXka
XgQBgDd7ndAmBCmdyPPEGN/tpMvPv3V/07I0Bi+JvmV4iseF1/+ldaVP5f4gKNJP
da0LKtxVyu9xHIemLbuB7oo0wAwn4NtHb+3jqv2L1RopUGE26/lgngZYluUu5oJg
xp7zV1nWE/j7nGHfE1+6ug9TNbU90Fs2lB+96ZMJd/AL2FnCVZmek9CZx3dad2ss
gUl43VE3oAcOVwxg8RWiZ3t0r9SVYR/p48WXPY0DPAyvHGrqT+5FeoQoFbk9ggk4
PahBAgMBAAEwDQYJKoZIhvcNAQENBQADggEBAA9kOy9/nK3EEiNYvCIhcze3jiaW
H7K2coWPqE7K5CB3n/EwRrYobZtOk9jAwrPY7UpbsONqwtv4lBCPfQk/yhqK2iC8
UC/QzcjJ03Ef42vn+uhR/kYHN1gRDFo272kz0JQ8tDe7ig7v+xWAVU9YIMCNb8zA
k/WK9PWI+OVyHJXWq3iSxSCYIHgEdi2D+DlB1+VOW9tgctC23YZ+TdjbzYkgTJUa
qUFgeQK/gyOOielbCA4RJGQMzx0xUBvZ/Ih3So3xWf8e8oFnUTbsLh/2t2MO3PMM
NoOCH3KGAlE1CyGwUeLOjfDqirB3lDx3v0rJxEJfArCt1RRo8EfSGJ+DGxo=
-----END CERTIFICATE-----
