Certificate:
    Data:
        Version: 1 (0x0)
        Serial Number: 1 (0x1)
    Signature Algorithm: sha512WithRSAEncryption
        Issuer: C=US, ST=CA, O=Open vSwitch, OU=switchca, CN=OVS switchca CA Certificate (2017 Jun 26 19:37:50)
        Validity
            Not Before: Jun 27 02:37:50 2017 GMT
            Not After : Jun 25 02:37:50 2027 GMT
        Subject: C=US, ST=CA, O=Open vSwitch, OU=switchca, CN=OVS switchca CA Certificate (2017 Jun 26 19:37:50)
        Subject Public Key Info:
            Public Key Algorithm: rsaEncryption
                Public-Key: (2048 bit)
                Modulus:
                    00:a2:e5:40:ee:72:5e:7e:a8:5a:d1:9a:43:cb:f9:
                    0b:66:4a:4f:b0:a0:33:b9:10:9c:ef:a7:80:7e:be:
                    b1:b1:56:87:6a:0b:5e:4f:f5:a3:03:05:48:30:15:
                    50:7f:52:9e:36:bd:ab:f0:1d:0b:0c:04:64:d6:05:
                    01:ae:26:32:d6:d1:47:ae:5e:0c:99:be:3f:1b:56:
                    16:26:11:dc:67:62:c1:e9:fb:b7:85:c7:45:b8:6d:
                    90:f8:e6:33:5e:93:40:20:17:dc:0c:ae:d0:2b:fb:
                    17:0a:7a:01:91:51:d2:ee:94:f9:c0:dd:7c:d5:48:
                    11:3a:02:fe:ca:f2:07:fd:fc:6c:dd:99:bd:08:12:
                    d4:c1:e0:21:05:73:06:db:e0:79:dc:cb:1f:8f:d1:
                    ac:3b:ed:d9:31:a2:d9:1e:07:60:93:8f:0f:2e:ee:
                    75:ea:fc:92:12:80:87:d6:dd:81:31:e7:3c:ee:14:
                    ee:45:96:8d:97:df:fe:fa:12:51:43:be:be:aa:fe:
                    3d:3a:3f:16:d9:40:d5:4d:8a:c6:47:e3:f9:97:84:
                    64:58:f2:da:17:9b:e7:8d:31:58:e0:d0:ad:7e:02:
                    a0:de:28:c3:1f:73:a6:44:52:2b:61:02:3c:ac:df:
                    ce:e1:f2:73:de:5f:c9:ca:3f:1e:65:59:84:39:b5:
                    98:03
                Exponent: 65537 (0x10001)
    Signature Algorithm: sha512WithRSAEncryption
         4b:26:6a:17:c7:29:f7:d0:8e:b6:25:c1:7b:0e:1f:af:61:c5:
         cd:f1:3c:10:8b:a7:08:f8:35:89:fa:c8:8b:e6:5b:5f:8a:94:
         e6:95:27:c8:6b:93:99:15:67:0d:4d:b3:8b:d9:3f:fd:60:14:
         60:b1:73:22:0e:a9:25:43:8a:70:bb:a9:aa:a2:0e:fd:9a:11:
         87:ac:4e:02:ee:76:c2:c7:4f:e9:c7:b7:92:23:c9:f0:42:f0:
         02:2f:a8:5a:f9:d4:32:79:d7:dd:3d:a4:a7:10:2d:ee:0d:c4:
         72:17:8c:92:d3:c9:6a:0d:15:7e:61:13:95:f2:f9:94:26:de:
         47:51:7c:df:ff:77:ce:b4:58:b1:01:76:d1:b1:e0:6b:1d:6b:
         77:85:dd:b6:c4:b5:db:9f:9e:82:0e:07:10:ea:6b:2b:60:e7:
         72:c0:1e:6e:fc:01:53:ea:42:ce:2d:ad:da:3c:51:28:66:00:
         2e:2a:a1:8e:0d:b9:c6:83:f9:ab:05:ca:9d:cc:68:fa:bb:10:
         da:45:c1:2b:a1:6d:8e:90:c1:9b:fa:34:27:68:48:3c:71:d4:
         fb:7a:3b:46:1e:4f:da:4b:29:31:60:a6:be:03:4e:bd:82:73:
         f2:2a:e8:0c:21:45:64:63:1a:70:e7:b5:77:43:f2:cd:62:42:
         3b:d0:95:5c
-----BEGIN CERTIFICATE-----
MIIDeDCCAmACAQEwDQYJKoZIhvcNAQENBQAwgYExCzAJBgNVBAYTAlVTMQswCQYD
VQQIEwJDQTEVMBMGA1UEChMMT3BlbiB2U3dpdGNoMREwDwYDVQQLEwhzd2l0Y2hj
YTE7MDkGA1UEAxMyT1ZTIHN3aXRjaGNhIENBIENlcnRpZmljYXRlICgyMDE3IEp1
biAyNiAxOTozNzo1MCkwHhcNMTcwNjI3MDIzNzUwWhcNMjcwNjI1MDIzNzUwWjCB
gTELMAkGA1UEBhMCVVMxCzAJBgNVBAgTAkNBMRUwEwYDVQQKEwxPcGVuIHZTd2l0
Y2gxETAPBgNVBAsTCHN3aXRjaGNhMTswOQYDVQQDEzJPVlMgc3dpdGNoY2EgQ0Eg
Q2VydGlmaWNhdGUgKDIwMTcgSnVuIDI2IDE5OjM3OjUwKTCCASIwDQYJKoZIhvcN
AQEBBQADggEPADCCAQoCggEBAKLlQO5yXn6oWtGaQ8v5C2ZKT7CgM7kQnO+ngH6+
sbFWh2oLXk/1owMFSDAVUH9Snja9q/AdCwwEZNYFAa4mMtbRR65eDJm+PxtWFiYR
3Gdiwen7t4XHRbhtkPjmM16TQCAX3Ayu0Cv7Fwp6AZFR0u6U+cDdfNVIEToC/sry
B/38bN2ZvQgS1MHgIQVzBtvgedzLH4/RrDvt2TGi2R4HYJOPDy7uder8khKAh9bd
gTHnPO4U7kWWjZff/voSUUO+vqr+PTo/FtlA1U2Kxkfj+ZeEZFjy2heb540xWODQ
rX4CoN4owx9zpkRSK2ECPKzfzuHyc95fyco/HmVZhDm1mAMCAwEAATANBgkqhkiG
9w0BAQ0FAAOCAQEASyZqF8cp99COtiXBew4fr2HFzfE8EIunCPg1ifrIi+ZbX4qU
5pUnyGuTmRVnDU2zi9k//WAUYLFzIg6pJUOKcLupqqIO/ZoRh6xOAu52wsdP6ce3
kiPJ8ELwAi+oWvnUMnnX3T2kpxAt7g3EcheMktPJag0VfmETlfL5lCbeR1F83/93
zrRYsQF20bHgax1rd4XdtsS125+egg4HEOprK2DncsAebvwBU+pCzi2t2jxRKGYA
Liqhjg25xoP5qwXKncxo+rsQ2kXBK6FtjpDBm/o0J2hIPHHU+3o7Rh5P2kspMWCm
vgNOvYJz8iroDCFFZGMacOe1d0PyzWJCO9CVXA==
-----END CERTIFICATE-----
