Certificate:
    Data:
        Version: 1 (0x0)
        Serial Number: 2 (0x2)
    Signature Algorithm: sha512WithRSAEncryption
        Issuer: C=US, ST=CA, O=Open vSwitch, OU=switchca, CN=OVS switchca CA Certificate (2017 Jun 26 19:37:50)
        Validity
            Not Before: Jun 27 02:40:57 2017 GMT
            Not After : Jun 25 02:40:57 2027 GMT
        Subject: C=US, ST=CA, O=Open vSwitch, OU=Open vSwitch certifier, CN=sw id:01647810-eacf-4369-a483-8f42613e7e19
        Subject Public Key Info:
            Public Key Algorithm: rsaEncryption
                Public-Key: (2048 bit)
                Modulus:
                    00:97:e6:b5:8b:48:07:b4:6a:9b:b2:8d:eb:76:c8:
                    21:af:6b:f1:d6:93:fb:25:66:21:2f:e7:21:51:30:
                    d6:4d:fb:d0:6b:b7:20:35:67:4b:02:5d:ea:3f:f4:
                    1b:3f:9d:b7:21:f7:fd:91:ee:e2:98:28:cb:fd:62:
                    3f:71:0a:3a:c0:bb:f0:ab:15:31:09:3b:00:91:e5:
                    cd:33:b2:c3:96:43:21:c7:ed:b0:4c:30:a0:44:c1:
                    e7:64:90:0b:a1:fb:db:f2:1f:20:e3:07:68:f1:c7:
                    47:0e:ce:a9:4d:85:02:45:9c:56:81:00:ac:0d:0a:
                    de:0f:2b:13:75:5e:28:e7:36:d2:b6:5f:b9:eb:d2:
                    4e:ba:e0:d9:78:7c:8d:ce:20:37:33:be:1d:fd:ea:
                    0b:15:ac:84:ad:02:aa:19:bf:d8:16:31:fd:b4:87:
                    8e:9b:ba:b8:0d:33:d9:35:90:ff:fa:bc:9e:b2:41:
                    96:d4:80:d5:99:19:65:6e:57:37:28:e3:3c:5e:0b:
                    ad:3a:a4:f9:18:65:b2:e0:53:4f:00:59:e2:08:2c:
                    6d:86:99:db:3d:2c:2b:7a:1f:b0:c5:76:34:f0:05:
                    ca:dc:4e:4e:a8:23:b9:92:aa:3f:07:a3:bc:57:c0:
                    01:98:67:06:e8:80:05:85:da:01:1f:02:0b:0c:bd:
                    a4:1d
                Exponent: 65537 (0x10001)
    Signature Algorithm: sha512WithRSAEncryption
         7b:00:e1:9e:8c:82:b9:44:1d:47:c3:81:c0:5b:83:b1:27:65:
         85:06:cc:85:29:ea:88:73:5f:cd:99:cc:63:ed:da:76:10:3d:
         a7:60:0e:4d:00:b9:3c:26:d6:a3:cc:66:79:3a:12:71:f8:f5:
         ac:2a:bb:3b:f4:fb:ec:d4:3c:6d:b6:d6:70:ce:71:df:ea:8a:
         41:b0:44:a0:bf:3e:df:4b:23:57:f6:d9:ed:43:a3:97:61:8c:
         4b:c1:c4:e6:ac:0e:c8:d4:54:6a:d8:57:8b:cd:8e:4f:d7:c0:
         42:d5:fe:7d:82:33:da:66:d4:db:af:ad:6d:b2:e2:86:4d:36:
         53:d3:f3:26:55:04:e4:1d:d7:af:b6:3f:1d:b2:c9:22:ca:67:
         fa:ce:11:b3:96:eb:78:fa:75:0a:7b:13:a2:aa:75:57:1c:98:
         90:16:36:f8:2b:e7:90:05:4f:c8:46:c4:5b:29:de:42:b1:cb:
         d5:7c:72:a7:fd:1c:83:72:31:4e:74:2e:ae:33:2e:b3:69:0c:
         4d:89:8a:6d:3e:21:bb:22:3f:36:aa:19:fd:9d:a2:79:de:19:
         2d:45:64:6e:61:ac:ad:28:90:7e:4a:1b:b3:3f:1a:3b:d5:6e:
         c3:2d:bd:4a:b2:c8:82:d6:fb:c8:d0:57:81:dd:ed:32:39:85:
         69:87:ec:3d
-----BEGIN CERTIFICATE-----
MIIDfjCCAmYCAQIwDQYJKoZIhvcNAQENBQAwgYExCzAJBgNVBAYTAlVTMQswCQYD
VQQIEwJDQTEVMBMGA1UEChMMT3BlbiB2U3dpdGNoMREwDwYDVQQLEwhzd2l0Y2hj
YTE7MDkGA1UEAxMyT1ZTIHN3aXRjaGNhIENBIENlcnRpZmljYXRlICgyMDE3IEp1
biAyNiAxOTozNzo1MCkwHhcNMTcwNjI3MDI0MDU3WhcNMjcwNjI1MDI0MDU3WjCB
hzELMAkGA1UEBhMCVVMxCzAJBgNVBAgTAkNBMRUwEwYDVQQKEwxPcGVuIHZTd2l0
Y2gxHzAdBgNVBAsTFk9wZW4gdlN3aXRjaCBjZXJ0aWZpZXIxMzAxBgNVBAMTKnN3
IGlkOjAxNjQ3ODEwLWVhY2YtNDM2OS1hNDgzLThmNDI2MTNlN2UxOTCCASIwDQYJ
KoZIhvcNAQEBBQADggEPADCCAQoCggEBAJfmtYtIB7Rqm7KN63bIIa9r8daT+yVm
IS/nIVEw1k370Gu3IDVnSwJd6j/0Gz+dtyH3/ZHu4pgoy/1iP3EKOsC78KsVMQk7
AJHlzTOyw5ZDIcftsEwwoETB52SQC6H72/IfIOMHaPHHRw7OqU2FAkWcVoEArA0K
3g8rE3VeKOc20rZfuevSTrrg2Xh8jc4gNzO+Hf3qCxWshK0Cqhm/2BYx/bSHjpu6
uA0z2TWQ//q8nrJBltSA1ZkZZW5XNyjjPF4LrTqk+RhlsuBTTwBZ4ggsbYaZ2z0s
K3ofsMV2NPAFytxOTqgjuZKqPwejvFfAAZhnBuiABYXaAR8CCwy9pB0CAwEAATAN
BgkqhkiG9w0BAQ0FAAOCAQEAewDhnoyCuUQdR8OBwFuDsSdlhQbMhSnqiHNfzZnM
Y+3adhA9p2AOTQC5PCbWo8xmeToScfj1rCq7O/T77NQ8bbbWcM5x3+qKQbBEoL8+
30sjV/bZ7UOjl2GMS8HE5qwOyNRUathXi82OT9fAQtX+fYIz2mbU26+tbbLihk02
U9PzJlUE5B3Xr7Y/HbLJIspn+s4Rs5brePp1CnsToqp1VxyYkBY2+CvnkAVPyEbE
WyneQrHL1Xxyp/0cg3IxTnQurjMus2kMTYmKbT4huyI/NqoZ/Z2ied4ZLUVkbmGs
rSiQfkobsz8aO9Vuwy29SrLIgtb7yNBXgd3tMjmFaYfsPQ==
-----END CERTIFICATE-----
